target datalayout = "e-m:e-p270:32:32-p271:32:32-p272:64:64-i64:64-i128:128-f80:128-n8:16:32:64-S128"
target triple = "x86_64-pc-linux-gnu"

%struct.darktable_t = type { %struct.dt_codepath_t, i32, i32, ptr, ptr, ptr, ptr, ptr, ptr, ptr, ptr, ptr, ptr, ptr, ptr, ptr, ptr, ptr, ptr, ptr, ptr, ptr, ptr, ptr, ptr, ptr, ptr, ptr, ptr, ptr, [64 x %struct.dt_pthread_mutex_t], %struct.dt_pthread_mutex_t, %struct.dt_pthread_mutex_t, %struct.dt_pthread_mutex_t, %struct.dt_pthread_mutex_t, %struct.dt_pthread_mutex_t, ptr, ptr, ptr, ptr, ptr, ptr, ptr, ptr, ptr, ptr, ptr, ptr, ptr, %struct.dt_lua_state_t, ptr, double, ptr, i32, [47 x i32], i32, i32, ptr, ptr, %struct.dt_sys_resources_t, %struct.dt_backthumb_t, %struct.dt_gimp_t }
%struct.dt_codepath_t = type { i8, [3 x i8] }
%struct.dt_pthread_mutex_t = type { %union.pthread_mutex_t }
%union.pthread_mutex_t = type { %struct.__pthread_mutex_s }
%struct.__pthread_mutex_s = type { i32, i32, i32, i32, i32, i16, i16, %struct.__pthread_internal_list }
%struct.__pthread_internal_list = type { ptr, ptr }
%struct.dt_lua_state_t = type { i32 }
%struct.dt_sys_resources_t = type { i64, i64, ptr, ptr, i32 }
%struct.dt_backthumb_t = type { double, double, i32, i32, i32, i32 }
%struct.dt_gimp_t = type { i32, ptr, ptr, i32, i32 }
%struct._GdkRGBA = type { double, double, double, double }
%struct._GTypeInstance = type { ptr }
%struct._GtkBorder = type { i16, i16, i16, i16 }
%struct.dt_bauhaus_t = type { ptr, %struct.dt_bauhaus_popup_t, ptr, float, float, i32, i32, float, [180 x i8], i32, i32, [2 x i32], i32, ptr, ptr, float, float, float, float, float, ptr, ptr, i32, i32, i32, %struct._GdkRGBA, %struct._GdkRGBA, %struct._GdkRGBA, %struct._GdkRGBA, %struct._GdkRGBA, %struct._GdkRGBA, %struct._GdkRGBA, %struct._GdkRGBA, %struct._GdkRGBA, %struct._GdkRGBA, %struct._GdkRGBA, %struct._GdkRGBA, %struct._GdkRGBA, %struct._GdkRGBA, %struct._GdkRGBA, [3 x %struct._GdkRGBA], [5 x %struct._GdkRGBA] }
%struct.dt_bauhaus_popup_t = type { ptr, ptr, %struct._GtkBorder, %struct._cairo_rectangle_int, i32, i32, i32 }
%struct._cairo_rectangle_int = type { i32, i32, i32, i32 }
%struct._GTypeClass = type { i64 }

@darktable = external global %struct.darktable_t, align 8

; Function Attrs: nounwind uwtable
define internal void @_window_position(i32 noundef %0) #0 {
  %2 = alloca i32, align 4
  %3 = alloca ptr, align 8
  %4 = alloca i32, align 4
  %5 = alloca i32, align 4
  %6 = alloca ptr, align 8
  %7 = alloca i64, align 8
  %8 = alloca i32, align 4
  %9 = alloca i32, align 4
  %10 = alloca ptr, align 8
  %11 = alloca ptr, align 8
  %12 = alloca ptr, align 8
  store i32 %0, ptr %2, align 4, !tbaa !13
  call void @llvm.lifetime.start.p0(i64 8, ptr %3) #13
  %13 = load ptr, ptr getelementptr inbounds nuw (%struct.darktable_t, ptr @darktable, i32 0, i32 17), align 8, !tbaa !78
  %14 = getelementptr inbounds nuw %struct.dt_bauhaus_t, ptr %13, i32 0, i32 1
  store ptr %14, ptr %3, align 8, !tbaa !101
  %15 = load ptr, ptr %3, align 8, !tbaa !101
  %16 = getelementptr inbounds nuw %struct.dt_bauhaus_popup_t, ptr %15, i32 0, i32 6
  %17 = load i32, ptr %16, align 8, !tbaa !361
  %18 = icmp ne i32 %17, 0
  br i1 %18, label %19, label %31

19:                                               ; preds = %1
  %20 = load ptr, ptr %3, align 8, !tbaa !101
  %21 = getelementptr inbounds nuw %struct.dt_bauhaus_popup_t, ptr %20, i32 0, i32 0
  %22 = load ptr, ptr %21, align 8, !tbaa !108
  %23 = call i32 @gtk_widget_get_visible(ptr noundef %22)
  %24 = icmp ne i32 %23, 0
  br i1 %24, label %25, label %31

25:                                               ; preds = %19
  %26 = load i32, ptr %2, align 4, !tbaa !13
  %27 = load ptr, ptr %3, align 8, !tbaa !101
  %28 = getelementptr inbounds nuw %struct.dt_bauhaus_popup_t, ptr %27, i32 0, i32 5
  %29 = load i32, ptr %28, align 4, !tbaa !132
  %30 = add nsw i32 %29, %26
  store i32 %30, ptr %28, align 4, !tbaa !132
  store i32 1, ptr %4, align 4
  br label %145

31:                                               ; preds = %19, %1
  call void @llvm.lifetime.start.p0(i64 4, ptr %5) #13
  %32 = load ptr, ptr %3, align 8, !tbaa !101
  %33 = getelementptr inbounds nuw %struct.dt_bauhaus_popup_t, ptr %32, i32 0, i32 3
  %34 = getelementptr inbounds nuw %struct._cairo_rectangle_int, ptr %33, i32 0, i32 3
  %35 = load i32, ptr %34, align 4, !tbaa !133
  store i32 %35, ptr %5, align 4, !tbaa !13
  %36 = load i32, ptr %2, align 4, !tbaa !13
  %37 = load ptr, ptr %3, align 8, !tbaa !101
  %38 = getelementptr inbounds nuw %struct.dt_bauhaus_popup_t, ptr %37, i32 0, i32 4
  %39 = load i32, ptr %38, align 8, !tbaa !354
  %40 = add nsw i32 %39, %36
  store i32 %40, ptr %38, align 8, !tbaa !354
  %41 = load ptr, ptr %3, align 8, !tbaa !101
  %42 = getelementptr inbounds nuw %struct.dt_bauhaus_popup_t, ptr %41, i32 0, i32 6
  store i32 0, ptr %42, align 8, !tbaa !361
  call void @llvm.lifetime.start.p0(i64 8, ptr %6) #13
  %43 = load ptr, ptr %3, align 8, !tbaa !101
  %44 = getelementptr inbounds nuw %struct.dt_bauhaus_popup_t, ptr %43, i32 0, i32 0
  %45 = load ptr, ptr %44, align 8, !tbaa !108
  %46 = call ptr @gtk_widget_get_display(ptr noundef %45)
  store ptr %46, ptr %6, align 8, !tbaa !242
  call void @llvm.lifetime.start.p0(i64 8, ptr %7) #13
  %47 = call i64 @gdk_wayland_display_get_type()
  store i64 %47, ptr %7, align 8, !tbaa !11
  call void @llvm.lifetime.start.p0(i64 4, ptr %8) #13
  %48 = load ptr, ptr %6, align 8, !tbaa !242
  %49 = icmp ne ptr %48, null
  br i1 %49, label %51, label %50

50:                                               ; preds = %31
  store i32 0, ptr %8, align 4, !tbaa !13
  br label %70

51:                                               ; preds = %31
  %52 = load ptr, ptr %6, align 8, !tbaa !242
  %53 = getelementptr inbounds nuw %struct._GTypeInstance, ptr %52, i32 0, i32 0
  %54 = load ptr, ptr %53, align 8, !tbaa !244
  %55 = icmp ne ptr %54, null
  br i1 %55, label %56, label %65

56:                                               ; preds = %51
  %57 = load ptr, ptr %6, align 8, !tbaa !242
  %58 = getelementptr inbounds nuw %struct._GTypeInstance, ptr %57, i32 0, i32 0
  %59 = load ptr, ptr %58, align 8, !tbaa !244
  %60 = getelementptr inbounds nuw %struct._GTypeClass, ptr %59, i32 0, i32 0
  %61 = load i64, ptr %60, align 8, !tbaa !245
  %62 = load i64, ptr %7, align 8, !tbaa !11
  %63 = icmp eq i64 %61, %62
  br i1 %63, label %64, label %65

64:                                               ; preds = %56
  store i32 1, ptr %8, align 4, !tbaa !13
  br label %69

65:                                               ; preds = %56, %51
  %66 = load ptr, ptr %6, align 8, !tbaa !242
  %67 = load i64, ptr %7, align 8, !tbaa !11
  %68 = call i32 @g_type_check_instance_is_a(ptr noundef %66, i64 noundef %67) #16
  store i32 %68, ptr %8, align 4, !tbaa !13
  br label %69

69:                                               ; preds = %65, %64
  br label %70

70:                                               ; preds = %69, %50
  %71 = load i32, ptr %8, align 4, !tbaa !13
  store i32 %71, ptr %9, align 4, !tbaa !13
  call void @llvm.lifetime.end.p0(i64 4, ptr %8) #13
  call void @llvm.lifetime.end.p0(i64 8, ptr %7) #13
  call void @llvm.lifetime.end.p0(i64 8, ptr %6) #13
  %72 = load i32, ptr %9, align 4, !tbaa !13
  %73 = icmp ne i32 %72, 0
  br i1 %73, label %74, label %96

74:                                               ; preds = %70
  %75 = load ptr, ptr %3, align 8, !tbaa !101
  %76 = getelementptr inbounds nuw %struct.dt_bauhaus_popup_t, ptr %75, i32 0, i32 6
  store i32 1, ptr %76, align 8, !tbaa !361
  %77 = load ptr, ptr %3, align 8, !tbaa !101
  %78 = getelementptr inbounds nuw %struct.dt_bauhaus_popup_t, ptr %77, i32 0, i32 0
  %79 = load ptr, ptr %78, align 8, !tbaa !108
  call void @gtk_widget_set_app_paintable(ptr noundef %79, i32 noundef 1)
  call void @llvm.lifetime.start.p0(i64 8, ptr %10) #13
  %80 = load ptr, ptr %3, align 8, !tbaa !101
  %81 = getelementptr inbounds nuw %struct.dt_bauhaus_popup_t, ptr %80, i32 0, i32 0
  %82 = load ptr, ptr %81, align 8, !tbaa !108
  %83 = call ptr @gtk_widget_get_screen(ptr noundef %82)
  store ptr %83, ptr %10, align 8, !tbaa !362
  call void @llvm.lifetime.start.p0(i64 8, ptr %11) #13
  %84 = load ptr, ptr %10, align 8, !tbaa !362
  %85 = call ptr @gdk_screen_get_rgba_visual(ptr noundef %84)
  store ptr %85, ptr %11, align 8, !tbaa !364
  %86 = load i32, ptr %5, align 4, !tbaa !13
  %87 = sub nsw i32 0, %86
  %88 = load ptr, ptr %3, align 8, !tbaa !101
  %89 = getelementptr inbounds nuw %struct.dt_bauhaus_popup_t, ptr %88, i32 0, i32 5
  store i32 %87, ptr %89, align 4, !tbaa !132
  %90 = load i32, ptr %5, align 4, !tbaa !13
  %91 = mul nsw i32 %90, 2
  store i32 %91, ptr %5, align 4, !tbaa !13
  %92 = load ptr, ptr %3, align 8, !tbaa !101
  %93 = getelementptr inbounds nuw %struct.dt_bauhaus_popup_t, ptr %92, i32 0, i32 0
  %94 = load ptr, ptr %93, align 8, !tbaa !108
  %95 = load ptr, ptr %11, align 8, !tbaa !364
  call void @gtk_widget_set_visual(ptr noundef %94, ptr noundef %95)
  call void @llvm.lifetime.end.p0(i64 8, ptr %11) #13
  call void @llvm.lifetime.end.p0(i64 8, ptr %10) #13
  br label %96

96:                                               ; preds = %74, %70
  %97 = load ptr, ptr %3, align 8, !tbaa !101
  %98 = getelementptr inbounds nuw %struct.dt_bauhaus_popup_t, ptr %97, i32 0, i32 5
  %99 = load i32, ptr %98, align 4, !tbaa !132
  %100 = icmp sgt i32 %99, 0
  br i1 %100, label %101, label %119

101:                                              ; preds = %96
  %102 = load ptr, ptr %3, align 8, !tbaa !101
  %103 = getelementptr inbounds nuw %struct.dt_bauhaus_popup_t, ptr %102, i32 0, i32 5
  %104 = load i32, ptr %103, align 4, !tbaa !132
  %105 = load i32, ptr %2, align 4, !tbaa !13
  %106 = add nsw i32 %104, %105
  %107 = icmp sgt i32 0, %106
  br i1 %107, label %108, label %109

108:                                              ; preds = %101
  br label %115

109:                                              ; preds = %101
  %110 = load ptr, ptr %3, align 8, !tbaa !101
  %111 = getelementptr inbounds nuw %struct.dt_bauhaus_popup_t, ptr %110, i32 0, i32 5
  %112 = load i32, ptr %111, align 4, !tbaa !132
  %113 = load i32, ptr %2, align 4, !tbaa !13
  %114 = add nsw i32 %112, %113
  br label %115

115:                                              ; preds = %109, %108
  %116 = phi i32 [ 0, %108 ], [ %114, %109 ]
  %117 = load ptr, ptr %3, align 8, !tbaa !101
  %118 = getelementptr inbounds nuw %struct.dt_bauhaus_popup_t, ptr %117, i32 0, i32 5
  store i32 %116, ptr %118, align 4, !tbaa !132
  br label %119

119:                                              ; preds = %115, %96
  call void @llvm.lifetime.start.p0(i64 8, ptr %12) #13
  %120 = load ptr, ptr %3, align 8, !tbaa !101
  %121 = getelementptr inbounds nuw %struct.dt_bauhaus_popup_t, ptr %120, i32 0, i32 0
  %122 = load ptr, ptr %121, align 8, !tbaa !108
  %123 = call ptr @gtk_widget_get_window(ptr noundef %122)
  store ptr %123, ptr %12, align 8, !tbaa !114
  %124 = load ptr, ptr %12, align 8, !tbaa !114
  %125 = load ptr, ptr %3, align 8, !tbaa !101
  %126 = getelementptr inbounds nuw %struct.dt_bauhaus_popup_t, ptr %125, i32 0, i32 3
  %127 = getelementptr inbounds nuw %struct._cairo_rectangle_int, ptr %126, i32 0, i32 2
  %128 = load i32, ptr %127, align 8, !tbaa !366
  %129 = load i32, ptr %5, align 4, !tbaa !13
  %130 = load ptr, ptr %3, align 8, !tbaa !101
  %131 = getelementptr inbounds nuw %struct.dt_bauhaus_popup_t, ptr %130, i32 0, i32 5
  %132 = load i32, ptr %131, align 4, !tbaa !132
  %133 = sub nsw i32 %129, %132
  call void @gdk_window_resize(ptr noundef %124, i32 noundef %128, i32 noundef %133)
  %134 = load ptr, ptr %12, align 8, !tbaa !114
  %135 = load ptr, ptr %3, align 8, !tbaa !101
  %136 = getelementptr inbounds nuw %struct.dt_bauhaus_popup_t, ptr %135, i32 0, i32 3
  %137 = load ptr, ptr %3, align 8, !tbaa !101
  %138 = getelementptr inbounds nuw %struct.dt_bauhaus_popup_t, ptr %137, i32 0, i32 4
  %139 = load i32, ptr %138, align 8, !tbaa !354
  %140 = sub nsw i32 0, %139
  %141 = load ptr, ptr %3, align 8, !tbaa !101
  %142 = getelementptr inbounds nuw %struct.dt_bauhaus_popup_t, ptr %141, i32 0, i32 5
  %143 = load i32, ptr %142, align 4, !tbaa !132
  %144 = add nsw i32 %140, %143
  call void @gdk_window_move_to_rect(ptr noundef %134, ptr noundef %136, i32 noundef 1, i32 noundef 1, i32 noundef 36, i32 noundef 0, i32 noundef %144)
  call void @llvm.lifetime.end.p0(i64 8, ptr %12) #13
  call void @llvm.lifetime.end.p0(i64 4, ptr %5) #13
  store i32 0, ptr %4, align 4
  br label %145

145:                                              ; preds = %119, %25
  call void @llvm.lifetime.end.p0(i64 8, ptr %3) #13
  %146 = load i32, ptr %4, align 4
  switch i32 %146, label %148 [
    i32 0, label %147
    i32 1, label %147
  ]

147:                                              ; preds = %145, %145
  ret void

148:                                              ; preds = %145
  unreachable
}