; Function Attrs: nounwind uwtable
define internal fastcc void @_window_position(i32 noundef %0) unnamed_addr #0 {
  %2 = load ptr, ptr getelementptr inbounds nuw (i8, ptr @darktable, i64 128), align 8, !tbaa !67
  %3 = getelementptr inbounds nuw i8, ptr %2, i64 8
  %4 = getelementptr inbounds nuw i8, ptr %2, i64 56
  %5 = load i32, ptr %4, align 8, !tbaa !295
  %.not = icmp eq i32 %5, 0
  br i1 %.not, label %13, label %6

6:                                                ; preds = %1
  %7 = load ptr, ptr %3, align 8, !tbaa !88
  %8 = tail call i32 @gtk_widget_get_visible(ptr noundef %7) #19
  %.not45 = icmp eq i32 %8, 0
  br i1 %.not45, label %13, label %9

9:                                                ; preds = %6
  %10 = getelementptr inbounds nuw i8, ptr %2, i64 52
  %11 = load i32, ptr %10, align 4, !tbaa !103
  %12 = add nsw i32 %11, %0
  store i32 %12, ptr %10, align 4, !tbaa !103
  br label %54

13:                                               ; preds = %6, %1
  %14 = getelementptr inbounds nuw i8, ptr %2, i64 32
  %15 = getelementptr inbounds nuw i8, ptr %2, i64 44
  %16 = load i32, ptr %15, align 4, !tbaa !104
  %17 = getelementptr inbounds nuw i8, ptr %2, i64 48
  %18 = load i32, ptr %17, align 8, !tbaa !289
  %19 = add nsw i32 %18, %0
  store i32 %19, ptr %17, align 8, !tbaa !289
  store i32 0, ptr %4, align 8, !tbaa !295
  %20 = load ptr, ptr %3, align 8, !tbaa !88
  %21 = tail call ptr @gtk_widget_get_display(ptr noundef %20) #19
  %22 = tail call i64 @gdk_wayland_display_get_type() #19
  %.not46 = icmp eq ptr %21, null
  br i1 %.not46, label %.critedge, label %23

23:                                               ; preds = %13
  %24 = load ptr, ptr %21, align 8, !tbaa !200
  %.not47 = icmp eq ptr %24, null
  br i1 %.not47, label %28, label %25

25:                                               ; preds = %23
  %26 = load i64, ptr %24, align 8, !tbaa !201
  %27 = icmp eq i64 %26, %22
  br i1 %27, label %.critedge50, label %28

28:                                               ; preds = %25, %23
  %29 = tail call i32 @g_type_check_instance_is_a(ptr noundef nonnull %21, i64 noundef %22) #22
  %30 = icmp eq i32 %29, 0
  br i1 %30, label %.critedge, label %.critedge50

.critedge50:                                      ; preds = %25, %28
  store i32 1, ptr %4, align 8, !tbaa !295
  %31 = load ptr, ptr %3, align 8, !tbaa !88
  tail call void @gtk_widget_set_app_paintable(ptr noundef %31, i32 noundef 1) #19
  %32 = load ptr, ptr %3, align 8, !tbaa !88
  %33 = tail call ptr @gtk_widget_get_screen(ptr noundef %32) #19
  %34 = tail call ptr @gdk_screen_get_rgba_visual(ptr noundef %33) #19
  %35 = sub nsw i32 0, %16
  %36 = getelementptr inbounds nuw i8, ptr %2, i64 52
  store i32 %35, ptr %36, align 4, !tbaa !103
  %37 = shl nsw i32 %16, 1
  %38 = load ptr, ptr %3, align 8, !tbaa !88
  tail call void @gtk_widget_set_visual(ptr noundef %38, ptr noundef %34) #19
  br label %.critedge

.critedge:                                        ; preds = %13, %.critedge50, %28
  %.0 = phi i32 [ %37, %.critedge50 ], [ %16, %28 ], [ %16, %13 ]
  %39 = getelementptr inbounds nuw i8, ptr %2, i64 52
  %40 = load i32, ptr %39, align 4, !tbaa !103
  %41 = icmp sgt i32 %40, 0
  br i1 %41, label %42, label %44

42:                                               ; preds = %.critedge
  %43 = add nsw i32 %40, %0
  %spec.select = tail call i32 @llvm.smax.i32(i32 %43, i32 0)
  store i32 %spec.select, ptr %39, align 4, !tbaa !103
  br label %44

44:                                               ; preds = %42, %.critedge
  %45 = load ptr, ptr %3, align 8, !tbaa !88
  %46 = tail call ptr @gtk_widget_get_window(ptr noundef %45) #19
  %47 = getelementptr inbounds nuw i8, ptr %2, i64 40
  %48 = load i32, ptr %47, align 8, !tbaa !296
  %49 = load i32, ptr %39, align 4, !tbaa !103
  %50 = sub nsw i32 %.0, %49
  tail call void @gdk_window_resize(ptr noundef %46, i32 noundef %48, i32 noundef %50) #19
  %51 = load i32, ptr %17, align 8, !tbaa !289
  %52 = load i32, ptr %39, align 4, !tbaa !103
  %53 = sub nsw i32 %52, %51
  tail call void @gdk_window_move_to_rect(ptr noundef %46, ptr noundef nonnull %14, i32 noundef 1, i32 noundef 1, i32 noundef 36, i32 noundef 0, i32 noundef %53) #19
  br label %54

54:                                               ; preds = %44, %9
  ret void
}